(i__main__
TreeNode
p0
(dp1
S'nodes'
p2
(lp3
(i__main__
TreeNode
p4
(dp5
g2
(lp6
(i__main__
TreeNode
p7
(dp8
g2
(lp9
(i__main__
TreeNode
p10
(dp11
g2
(lp12
(i__main__
TreeNode
p13
(dp14
g2
(lp15
(i__main__
TreeNode
p16
(dp17
g2
(lp18
(i__main__
TreeNode
p19
(dp20
g2
(lp21
(i__main__
TreeNode
p22
(dp23
g2
(lp24
(i__main__
TreeNode
p25
(dp26
g2
(lp27
(i__main__
TreeNode
p28
(dp29
g2
(lp30
(i__main__
TreeNode
p31
(dp32
g2
(lp33
sS'data'
p34
S'F'
p35
sba(i__main__
TreeNode
p36
(dp37
g2
(lp38
(i__main__
TreeNode
p39
(dp40
g2
(lp41
sg34
g35
sba(i__main__
TreeNode
p42
(dp43
g2
(lp44
sg34
g35
sba(i__main__
TreeNode
p45
(dp46
g2
(lp47
sg34
g35
sba(i__main__
TreeNode
p48
(dp49
g2
(lp50
sg34
g35
sba(i__main__
TreeNode
p51
(dp52
g2
(lp53
sg34
g35
sbasg34
S'88'
p54
sba(i__main__
TreeNode
p55
(dp56
g2
(lp57
sg34
g35
sba(i__main__
TreeNode
p58
(dp59
g2
(lp60
sg34
g35
sba(i__main__
TreeNode
p61
(dp62
g2
(lp63
sg34
g35
sbasg34
S'87'
p64
sba(i__main__
TreeNode
p65
(dp66
g2
(lp67
sg34
g35
sba(i__main__
TreeNode
p68
(dp69
g2
(lp70
sg34
g35
sba(i__main__
TreeNode
p71
(dp72
g2
(lp73
sg34
g35
sba(i__main__
TreeNode
p74
(dp75
g2
(lp76
sg34
g35
sbasg34
S'86'
p77
sba(i__main__
TreeNode
p78
(dp79
g2
(lp80
sg34
g35
sba(i__main__
TreeNode
p81
(dp82
g2
(lp83
(i__main__
TreeNode
p84
(dp85
g2
(lp86
sg34
g35
sba(i__main__
TreeNode
p87
(dp88
g2
(lp89
sg34
g35
sba(i__main__
TreeNode
p90
(dp91
g2
(lp92
sg34
g35
sba(i__main__
TreeNode
p93
(dp94
g2
(lp95
sg34
g35
sba(i__main__
TreeNode
p96
(dp97
g2
(lp98
sg34
g35
sbasg34
S'89'
p99
sba(i__main__
TreeNode
p100
(dp101
g2
(lp102
sg34
g35
sba(i__main__
TreeNode
p103
(dp104
g2
(lp105
sg34
g35
sbasg34
S'85'
p106
sba(i__main__
TreeNode
p107
(dp108
g2
(lp109
sg34
g35
sba(i__main__
TreeNode
p110
(dp111
g2
(lp112
sg34
g35
sba(i__main__
TreeNode
p113
(dp114
g2
(lp115
(i__main__
TreeNode
p116
(dp117
g2
(lp118
sg34
S'T'
p119
sba(i__main__
TreeNode
p120
(dp121
g2
(lp122
sg34
g35
sba(i__main__
TreeNode
p123
(dp124
g2
(lp125
sg34
g35
sba(i__main__
TreeNode
p126
(dp127
g2
(lp128
sg34
g35
sba(i__main__
TreeNode
p129
(dp130
g2
(lp131
sg34
g35
sbasg34
S'90'
p132
sba(i__main__
TreeNode
p133
(dp134
g2
(lp135
sg34
g35
sbasg34
S'83'
p136
sba(i__main__
TreeNode
p137
(dp138
g2
(lp139
(i__main__
TreeNode
p140
(dp141
g2
(lp142
sg34
g35
sba(i__main__
TreeNode
p143
(dp144
g2
(lp145
sg34
g35
sba(i__main__
TreeNode
p146
(dp147
g2
(lp148
sg34
g35
sba(i__main__
TreeNode
p149
(dp150
g2
(lp151
sg34
g35
sba(i__main__
TreeNode
p152
(dp153
g2
(lp154
sg34
g35
sbasg34
S'91'
p155
sba(i__main__
TreeNode
p156
(dp157
g2
(lp158
sg34
g35
sba(i__main__
TreeNode
p159
(dp160
g2
(lp161
sg34
g35
sba(i__main__
TreeNode
p162
(dp163
g2
(lp164
sg34
g35
sbasg34
S'82'
p165
sba(i__main__
TreeNode
p166
(dp167
g2
(lp168
sg34
g119
sba(i__main__
TreeNode
p169
(dp170
g2
(lp171
sg34
g35
sba(i__main__
TreeNode
p172
(dp173
g2
(lp174
sg34
g35
sba(i__main__
TreeNode
p175
(dp176
g2
(lp177
sg34
g35
sbasg34
S'15'
p178
sba(i__main__
TreeNode
p179
(dp180
g2
(lp181
sg34
g119
sba(i__main__
TreeNode
p182
(dp183
g2
(lp184
sg34
g35
sba(i__main__
TreeNode
p185
(dp186
g2
(lp187
sg34
g35
sba(i__main__
TreeNode
p188
(dp189
g2
(lp190
sg34
g35
sbasg34
S'5'
p191
sba(i__main__
TreeNode
p192
(dp193
g2
(lp194
sg34
g35
sba(i__main__
TreeNode
p195
(dp196
g2
(lp197
sg34
g119
sba(i__main__
TreeNode
p198
(dp199
g2
(lp200
sg34
g35
sba(i__main__
TreeNode
p201
(dp202
g2
(lp203
sg34
g35
sbasg34
S'3'
p204
sba(i__main__
TreeNode
p205
(dp206
g2
(lp207
sg34
g35
sba(i__main__
TreeNode
p208
(dp209
g2
(lp210
sg34
g35
sba(i__main__
TreeNode
p211
(dp212
g2
(lp213
sg34
g35
sba(i__main__
TreeNode
p214
(dp215
g2
(lp216
(i__main__
TreeNode
p217
(dp218
g2
(lp219
sg34
g35
sba(i__main__
TreeNode
p220
(dp221
g2
(lp222
sg34
g35
sba(i__main__
TreeNode
p223
(dp224
g2
(lp225
sg34
g35
sba(i__main__
TreeNode
p226
(dp227
g2
(lp228
sg34
g35
sba(i__main__
TreeNode
p229
(dp230
g2
(lp231
sg34
g35
sbasg34
S'6'
p232
sbasg34
S'2'
p233
sba(i__main__
TreeNode
p234
(dp235
g2
(lp236
sg34
g35
sba(i__main__
TreeNode
p237
(dp238
g2
(lp239
sg34
g35
sba(i__main__
TreeNode
p240
(dp241
g2
(lp242
sg34
g35
sba(i__main__
TreeNode
p243
(dp244
g2
(lp245
sg34
g119
sbasg34
S'1'
p246
sb.